target datalayout = "e-m:e-p270:32:32-p271:32:32-p272:64:64-i64:64-i128:128-f80:128-n8:16:32:64-S128"
target triple = "x86_64-pc-linux-gnu"

; Function Attrs: nounwind uwtable
define hidden void @cmsUnregisterPluginsTHR(ptr noundef %0) #0 {
  %2 = alloca ptr, align 8
  store ptr %0, ptr %2, align 8
  %3 = load ptr, ptr %2, align 8
  %4 = call i32 @_cmsRegisterMemHandlerPlugin(ptr noundef %3, ptr noundef null)
  %5 = load ptr, ptr %2, align 8
  %6 = call i32 @_cmsRegisterInterpPlugin(ptr noundef %5, ptr noundef null)
  %7 = load ptr, ptr %2, align 8
  %8 = call i32 @_cmsRegisterTagTypePlugin(ptr noundef %7, ptr noundef null)
  %9 = load ptr, ptr %2, align 8
  %10 = call i32 @_cmsRegisterTagPlugin(ptr noundef %9, ptr noundef null)
  %11 = load ptr, ptr %2, align 8
  %12 = call i32 @_cmsRegisterFormattersPlugin(ptr noundef %11, ptr noundef null)
  %13 = load ptr, ptr %2, align 8
  %14 = call i32 @_cmsRegisterRenderingIntentPlugin(ptr noundef %13, ptr noundef null)
  %15 = load ptr, ptr %2, align 8
  %16 = call i32 @_cmsRegisterParametricCurvesPlugin(ptr noundef %15, ptr noundef null)
  %17 = load ptr, ptr %2, align 8
  %18 = call i32 @_cmsRegisterMultiProcessElementPlugin(ptr noundef %17, ptr noundef null)
  %19 = load ptr, ptr %2, align 8
  %20 = call i32 @_cmsRegisterOptimizationPlugin(ptr noundef %19, ptr noundef null)
  %21 = load ptr, ptr %2, align 8
  %22 = call i32 @_cmsRegisterTransformPlugin(ptr noundef %21, ptr noundef null)
  %23 = load ptr, ptr %2, align 8
  %24 = call i32 @_cmsRegisterMutexPlugin(ptr noundef %23, ptr noundef null)
  %25 = load ptr, ptr %2, align 8
  %26 = call i32 @_cmsRegisterParallelizationPlugin(ptr noundef %25, ptr noundef null)
  ret void
}