; Function Attrs: nounwind uwtable
define hidden void @cmsUnregisterPluginsTHR(ptr noundef %0) local_unnamed_addr #2 {
  %2 = tail call i32 @_cmsRegisterMemHandlerPlugin(ptr noundef %0, ptr noundef null) #12
  %3 = tail call i32 @_cmsRegisterInterpPlugin(ptr noundef %0, ptr noundef null) #12
  %4 = tail call i32 @_cmsRegisterTagTypePlugin(ptr noundef %0, ptr noundef null) #12
  %5 = tail call i32 @_cmsRegisterTagPlugin(ptr noundef %0, ptr noundef null) #12
  %6 = tail call i32 @_cmsRegisterFormattersPlugin(ptr noundef %0, ptr noundef null) #12
  %7 = tail call i32 @_cmsRegisterRenderingIntentPlugin(ptr noundef %0, ptr noundef null) #12
  %8 = tail call i32 @_cmsRegisterParametricCurvesPlugin(ptr noundef %0, ptr noundef null) #12
  %9 = tail call i32 @_cmsRegisterMultiProcessElementPlugin(ptr noundef %0, ptr noundef null) #12
  %10 = tail call i32 @_cmsRegisterOptimizationPlugin(ptr noundef %0, ptr noundef null) #12
  %11 = tail call i32 @_cmsRegisterTransformPlugin(ptr noundef %0, ptr noundef null) #12
  %12 = tail call i32 @_cmsRegisterMutexPlugin(ptr noundef %0, ptr noundef null) #12
  %13 = tail call i32 @_cmsRegisterParallelizationPlugin(ptr noundef %0, ptr noundef null) #12
  ret void
}